; Function Attrs: nounwind uwtable
define hidden void @_cmsAllocAlarmCodesChunk(ptr nocapture noundef %0, ptr noundef readonly %1) local_unnamed_addr #0 {
  %.not = icmp eq ptr %1, null
  br i1 %.not, label %6, label %3

3:                                                ; preds = %2
  %4 = getelementptr inbounds i8, ptr %1, i64 32
  %5 = load ptr, ptr %4, align 8
  br label %6

6:                                                ; preds = %2, %3
  %.0 = phi ptr [ %5, %3 ], [ @_cmsAllocAlarmCodesChunk.AlarmCodesChunk, %2 ]
  %7 = getelementptr inbounds i8, ptr %0, i64 8
  %8 = load ptr, ptr %7, align 8
  %9 = tail call ptr @_cmsSubAllocDup(ptr noundef %8, ptr noundef %.0, i32 noundef 32) #11
  %10 = getelementptr inbounds i8, ptr %0, i64 32
  store ptr %9, ptr %10, align 8
  ret void
}